; Function Attrs: mustprogress nofree norecurse nosync nounwind willreturn memory(argmem: write) uwtable
define hidden void @_ZN5State12_sub_Op_VecYEPK4Node(ptr nocapture noundef nonnull writeonly align 8 dereferenceable(1920) %0, ptr nocapture noundef readnone %1) local_unnamed_addr #0 align 2 {
  %3 = getelementptr inbounds i8, ptr %0, i64 492
  store i32 0, ptr %3, align 4
  %4 = getelementptr inbounds i8, ptr %0, i64 1506
  store i16 247, ptr %4, align 2
  %5 = getelementptr inbounds i8, ptr %0, i64 488
  store i32 0, ptr %5, align 8
  %6 = getelementptr inbounds i8, ptr %0, i64 1504
  store i16 245, ptr %6, align 8
  %7 = getelementptr inbounds i8, ptr %0, i64 460
  store i32 0, ptr %7, align 4
  %8 = getelementptr inbounds i8, ptr %0, i64 1490
  store i16 231, ptr %8, align 2
  %9 = getelementptr inbounds i8, ptr %0, i64 456
  %10 = getelementptr inbounds i8, ptr %0, i64 1488
  store i32 0, ptr %9, align 8
  store i16 229, ptr %10, align 8
  ret void
}